target datalayout = "e-m:e-p270:32:32-p271:32:32-p272:64:64-i64:64-i128:128-f80:128-n8:16:32:64-S128"
target triple = "x86_64-pc-linux-gnu"

@.str.107 = private unnamed_addr constant [38 x i8] c"Hypertext Transfer Protocol Version 3\00", align 1
@.str.108 = private unnamed_addr constant [6 x i8] c"HTTP3\00", align 1
@.str.109 = private unnamed_addr constant [6 x i8] c"http3\00", align 1
@proto_http3 = internal global i32 0, align 4
@http3_handle = internal global ptr null, align 8

; Function Attrs: null_pointer_is_valid sspstrong uwtable
define hidden void @proto_register_http3() #0 {
  %1 = alloca ptr, align 8
  %2 = alloca ptr, align 8
  call void @llvm.lifetime.start.p0(i64 8, ptr %1) #15
  call void @llvm.lifetime.start.p0(i64 8, ptr %2) #15
  %3 = call i32 @proto_register_protocol(ptr noundef @.str.107, ptr noundef @.str.108, ptr noundef @.str.109)
  store i32 %3, ptr @proto_http3, align 4
  %4 = load i32, ptr @proto_http3, align 4
  call void @proto_register_field_array(i32 noundef %4, ptr noundef @proto_register_http3.hf, i32 noundef 47)
  call void @proto_register_subtree_array(ptr noundef @proto_register_http3.ett, i32 noundef 9)
  %5 = load i32, ptr @proto_http3, align 4
  %6 = call ptr @prefs_register_protocol(i32 noundef %5, ptr noundef null)
  store ptr %6, ptr %2, align 8
  %7 = load i32, ptr @proto_http3, align 4
  %8 = call ptr @expert_register_protocol(i32 noundef %7)
  store ptr %8, ptr %1, align 8
  %9 = load ptr, ptr %1, align 8
  call void @expert_register_field_array(ptr noundef %9, ptr noundef @proto_register_http3.ei, i32 noundef 6)
  %10 = load i32, ptr @proto_http3, align 4
  %11 = call ptr @register_dissector(ptr noundef @.str.109, ptr noundef @dissect_http3, i32 noundef %10)
  store ptr %11, ptr @http3_handle, align 8
  call void @llvm.lifetime.end.p0(i64 8, ptr %2) #15
  call void @llvm.lifetime.end.p0(i64 8, ptr %1) #15
  ret void
}