; Function Attrs: null_pointer_is_valid sspstrong uwtable
define hidden void @proto_register_http3() local_unnamed_addr #0 {
  %1 = tail call i32 @proto_register_protocol(ptr noundef nonnull @.str.107, ptr noundef nonnull @.str.108, ptr noundef nonnull @.str.109)
  store i32 %1, ptr @proto_http3, align 4
  tail call void @proto_register_field_array(i32 noundef %1, ptr noundef nonnull @proto_register_http3.hf, i32 noundef 47)
  tail call void @proto_register_subtree_array(ptr noundef nonnull @proto_register_http3.ett, i32 noundef 9)
  %2 = load i32, ptr @proto_http3, align 4
  %3 = tail call ptr @prefs_register_protocol(i32 noundef %2, ptr noundef null)
  %4 = load i32, ptr @proto_http3, align 4
  %5 = tail call ptr @expert_register_protocol(i32 noundef %4)
  tail call void @expert_register_field_array(ptr noundef %5, ptr noundef nonnull @proto_register_http3.ei, i32 noundef 6)
  %6 = load i32, ptr @proto_http3, align 4
  %7 = tail call ptr @register_dissector(ptr noundef nonnull @.str.109, ptr noundef nonnull @dissect_http3, i32 noundef %6)
  store ptr %7, ptr @http3_handle, align 8
  ret void
}